target datalayout = "e-m:e-p270:32:32-p271:32:32-p272:64:64-i64:64-i128:128-f80:128-n8:16:32:64-S128"
target triple = "x86_64-pc-linux-gnu"

%struct.location = type { i32, i32 }
%struct.block = type { ptr, ptr }
%struct.inst = type { ptr, ptr, i32, %struct.anon, ptr, %struct.location, ptr, ptr, i32, i32, i32, i32, %struct.block, %struct.block, ptr, i32 }
%struct.anon = type { i16, ptr, %struct.jv, ptr }
%struct.jv = type { i8, i8, i16, i32, %union.anon }
%union.anon = type { ptr }

@UNKNOWN_LOCATION = internal constant %struct.location { i32 -1, i32 -1 }, align 4

; Function Attrs: nounwind uwtable
define dso_local { ptr, ptr } @gen_noop() #0 {
  %1 = alloca %struct.block, align 8
  call void @llvm.memset.p0.i64(ptr align 8 %1, i8 0, i64 16, i1 false)
  %2 = load { ptr, ptr }, ptr %1, align 8
  ret { ptr, ptr } %2
}

; Function Attrs: nounwind uwtable
define internal { ptr, ptr } @inst_block(ptr noundef %0) #0 {
  %2 = alloca %struct.block, align 8
  %3 = alloca ptr, align 8
  store ptr %0, ptr %3, align 8, !tbaa !13
  %4 = getelementptr inbounds nuw %struct.block, ptr %2, i32 0, i32 0
  %5 = load ptr, ptr %3, align 8, !tbaa !13
  store ptr %5, ptr %4, align 8, !tbaa !4
  %6 = getelementptr inbounds nuw %struct.block, ptr %2, i32 0, i32 1
  %7 = load ptr, ptr %3, align 8, !tbaa !13
  store ptr %7, ptr %6, align 8, !tbaa !10
  %8 = load { ptr, ptr }, ptr %2, align 8
  ret { ptr, ptr } %8
}

; Function Attrs: nounwind uwtable
define internal ptr @inst_new(i32 noundef %0) #0 {
  %2 = alloca i32, align 4
  %3 = alloca ptr, align 8
  %4 = alloca %struct.block, align 8
  %5 = alloca %struct.block, align 8
  store i32 %0, ptr %2, align 4, !tbaa !26
  call void @llvm.lifetime.start.p0(i64 8, ptr %3) #7
  %6 = call ptr @jv_mem_alloc(i64 noundef 160)
  store ptr %6, ptr %3, align 8, !tbaa !13
  %7 = load ptr, ptr %3, align 8, !tbaa !13
  %8 = getelementptr inbounds nuw %struct.inst, ptr %7, i32 0, i32 1
  store ptr null, ptr %8, align 8, !tbaa !32
  %9 = load ptr, ptr %3, align 8, !tbaa !13
  %10 = getelementptr inbounds nuw %struct.inst, ptr %9, i32 0, i32 0
  store ptr null, ptr %10, align 8, !tbaa !28
  %11 = load i32, ptr %2, align 4, !tbaa !26
  %12 = load ptr, ptr %3, align 8, !tbaa !13
  %13 = getelementptr inbounds nuw %struct.inst, ptr %12, i32 0, i32 2
  store i32 %11, ptr %13, align 8, !tbaa !33
  %14 = load ptr, ptr %3, align 8, !tbaa !13
  %15 = getelementptr inbounds nuw %struct.inst, ptr %14, i32 0, i32 15
  store i32 -1, ptr %15, align 8, !tbaa !34
  %16 = load ptr, ptr %3, align 8, !tbaa !13
  %17 = getelementptr inbounds nuw %struct.inst, ptr %16, i32 0, i32 6
  store ptr null, ptr %17, align 8, !tbaa !35
  %18 = load ptr, ptr %3, align 8, !tbaa !13
  %19 = getelementptr inbounds nuw %struct.inst, ptr %18, i32 0, i32 7
  store ptr null, ptr %19, align 8, !tbaa !36
  %20 = load ptr, ptr %3, align 8, !tbaa !13
  %21 = getelementptr inbounds nuw %struct.inst, ptr %20, i32 0, i32 8
  store i32 0, ptr %21, align 8, !tbaa !37
  %22 = load ptr, ptr %3, align 8, !tbaa !13
  %23 = getelementptr inbounds nuw %struct.inst, ptr %22, i32 0, i32 9
  store i32 0, ptr %23, align 4, !tbaa !38
  %24 = load ptr, ptr %3, align 8, !tbaa !13
  %25 = getelementptr inbounds nuw %struct.inst, ptr %24, i32 0, i32 10
  store i32 -1, ptr %25, align 8, !tbaa !39
  %26 = load ptr, ptr %3, align 8, !tbaa !13
  %27 = getelementptr inbounds nuw %struct.inst, ptr %26, i32 0, i32 11
  store i32 -1, ptr %27, align 4, !tbaa !40
  %28 = load ptr, ptr %3, align 8, !tbaa !13
  %29 = getelementptr inbounds nuw %struct.inst, ptr %28, i32 0, i32 12
  call void @llvm.lifetime.start.p0(i64 16, ptr %4) #7
  %30 = call { ptr, ptr } @gen_noop()
  %31 = getelementptr inbounds nuw { ptr, ptr }, ptr %4, i32 0, i32 0
  %32 = extractvalue { ptr, ptr } %30, 0
  store ptr %32, ptr %31, align 8
  %33 = getelementptr inbounds nuw { ptr, ptr }, ptr %4, i32 0, i32 1
  %34 = extractvalue { ptr, ptr } %30, 1
  store ptr %34, ptr %33, align 8
  call void @llvm.memcpy.p0.p0.i64(ptr align 8 %29, ptr align 8 %4, i64 16, i1 false), !tbaa.struct !31
  call void @llvm.lifetime.end.p0(i64 16, ptr %4) #7
  %35 = load ptr, ptr %3, align 8, !tbaa !13
  %36 = getelementptr inbounds nuw %struct.inst, ptr %35, i32 0, i32 13
  call void @llvm.lifetime.start.p0(i64 16, ptr %5) #7
  %37 = call { ptr, ptr } @gen_noop()
  %38 = getelementptr inbounds nuw { ptr, ptr }, ptr %5, i32 0, i32 0
  %39 = extractvalue { ptr, ptr } %37, 0
  store ptr %39, ptr %38, align 8
  %40 = getelementptr inbounds nuw { ptr, ptr }, ptr %5, i32 0, i32 1
  %41 = extractvalue { ptr, ptr } %37, 1
  store ptr %41, ptr %40, align 8
  call void @llvm.memcpy.p0.p0.i64(ptr align 8 %36, ptr align 8 %5, i64 16, i1 false), !tbaa.struct !31
  call void @llvm.lifetime.end.p0(i64 16, ptr %5) #7
  %42 = load ptr, ptr %3, align 8, !tbaa !13
  %43 = getelementptr inbounds nuw %struct.inst, ptr %42, i32 0, i32 5
  call void @llvm.memcpy.p0.p0.i64(ptr align 8 %43, ptr align 4 @UNKNOWN_LOCATION, i64 8, i1 false), !tbaa.struct !25
  %44 = load ptr, ptr %3, align 8, !tbaa !13
  %45 = getelementptr inbounds nuw %struct.inst, ptr %44, i32 0, i32 4
  store ptr null, ptr %45, align 8, !tbaa !27
  %46 = load ptr, ptr %3, align 8, !tbaa !13
  call void @llvm.lifetime.end.p0(i64 8, ptr %3) #7
  ret ptr %46
}

; Function Attrs: nounwind uwtable
define dso_local { ptr, ptr } @gen_op_unbound(i32 noundef %0, ptr noundef %1) #0 {
  %3 = alloca %struct.block, align 8
  %4 = alloca i32, align 4
  %5 = alloca ptr, align 8
  %6 = alloca ptr, align 8
  store i32 %0, ptr %4, align 4, !tbaa !26
  store ptr %1, ptr %5, align 8, !tbaa !44
  call void @llvm.lifetime.start.p0(i64 8, ptr %6) #7
  %7 = load i32, ptr %4, align 4, !tbaa !26
  %8 = call ptr @inst_new(i32 noundef %7)
  store ptr %8, ptr %6, align 8, !tbaa !13
  %9 = load ptr, ptr %5, align 8, !tbaa !44
  %10 = call noalias ptr @strdup(ptr noundef %9) #7
  %11 = load ptr, ptr %6, align 8, !tbaa !13
  %12 = getelementptr inbounds nuw %struct.inst, ptr %11, i32 0, i32 7
  store ptr %10, ptr %12, align 8, !tbaa !36
  %13 = load ptr, ptr %6, align 8, !tbaa !13
  %14 = getelementptr inbounds nuw %struct.inst, ptr %13, i32 0, i32 8
  store i32 1, ptr %14, align 8, !tbaa !37
  %15 = load ptr, ptr %6, align 8, !tbaa !13
  %16 = call { ptr, ptr } @inst_block(ptr noundef %15)
  %17 = getelementptr inbounds nuw { ptr, ptr }, ptr %3, i32 0, i32 0
  %18 = extractvalue { ptr, ptr } %16, 0
  store ptr %18, ptr %17, align 8
  %19 = getelementptr inbounds nuw { ptr, ptr }, ptr %3, i32 0, i32 1
  %20 = extractvalue { ptr, ptr } %16, 1
  store ptr %20, ptr %19, align 8
  call void @llvm.lifetime.end.p0(i64 8, ptr %6) #7
  %21 = load { ptr, ptr }, ptr %3, align 8
  ret { ptr, ptr } %21
}

; Function Attrs: nounwind uwtable
define dso_local { ptr, ptr } @gen_var_binding(ptr %0, ptr %1, ptr noundef %2, ptr %3, ptr %4) #0 {
  %6 = alloca %struct.block, align 8
  %7 = alloca %struct.block, align 8
  %8 = alloca %struct.block, align 8
  %9 = alloca ptr, align 8
  %10 = alloca %struct.block, align 8
  %11 = getelementptr inbounds nuw { ptr, ptr }, ptr %7, i32 0, i32 0
  store ptr %0, ptr %11, align 8
  %12 = getelementptr inbounds nuw { ptr, ptr }, ptr %7, i32 0, i32 1
  store ptr %1, ptr %12, align 8
  %13 = getelementptr inbounds nuw { ptr, ptr }, ptr %8, i32 0, i32 0
  store ptr %3, ptr %13, align 8
  %14 = getelementptr inbounds nuw { ptr, ptr }, ptr %8, i32 0, i32 1
  store ptr %4, ptr %14, align 8
  store ptr %2, ptr %9, align 8, !tbaa !44
  %15 = load ptr, ptr %9, align 8, !tbaa !44
  %16 = call { ptr, ptr } @gen_op_unbound(i32 noundef 8, ptr noundef %15)
  %17 = getelementptr inbounds nuw { ptr, ptr }, ptr %10, i32 0, i32 0
  %18 = extractvalue { ptr, ptr } %16, 0
  store ptr %18, ptr %17, align 8
  %19 = getelementptr inbounds nuw { ptr, ptr }, ptr %10, i32 0, i32 1
  %20 = extractvalue { ptr, ptr } %16, 1
  store ptr %20, ptr %19, align 8
  %21 = getelementptr inbounds nuw { ptr, ptr }, ptr %7, i32 0, i32 0
  %22 = load ptr, ptr %21, align 8
  %23 = getelementptr inbounds nuw { ptr, ptr }, ptr %7, i32 0, i32 1
  %24 = load ptr, ptr %23, align 8
  %25 = getelementptr inbounds nuw { ptr, ptr }, ptr %10, i32 0, i32 0
  %26 = load ptr, ptr %25, align 8
  %27 = getelementptr inbounds nuw { ptr, ptr }, ptr %10, i32 0, i32 1
  %28 = load ptr, ptr %27, align 8
  %29 = getelementptr inbounds nuw { ptr, ptr }, ptr %8, i32 0, i32 0
  %30 = load ptr, ptr %29, align 8
  %31 = getelementptr inbounds nuw { ptr, ptr }, ptr %8, i32 0, i32 1
  %32 = load ptr, ptr %31, align 8
  %33 = call { ptr, ptr } @gen_destructure(ptr %22, ptr %24, ptr %26, ptr %28, ptr %30, ptr %32)
  %34 = getelementptr inbounds nuw { ptr, ptr }, ptr %6, i32 0, i32 0
  %35 = extractvalue { ptr, ptr } %33, 0
  store ptr %35, ptr %34, align 8
  %36 = getelementptr inbounds nuw { ptr, ptr }, ptr %6, i32 0, i32 1
  %37 = extractvalue { ptr, ptr } %33, 1
  store ptr %37, ptr %36, align 8
  %38 = load { ptr, ptr }, ptr %6, align 8
  ret { ptr, ptr } %38
}