; Function Attrs: nounwind uwtable
define dso_local { ptr, ptr } @gen_var_binding(ptr %0, ptr %1, ptr noundef readonly captures(none) %2, ptr %3, ptr %4) local_unnamed_addr #1 {
  %6 = tail call ptr @jv_mem_alloc(i64 noundef 160) #17
  %7 = getelementptr inbounds nuw i8, ptr %6, i64 16
  tail call void @llvm.memset.p0.i64(ptr noundef nonnull align 8 dereferenceable(16) %6, i8 0, i64 16, i1 false)
  store i32 8, ptr %7, align 8, !tbaa !25
  %8 = getelementptr inbounds nuw i8, ptr %6, i64 152
  store i32 -1, ptr %8, align 8, !tbaa !26
  %9 = getelementptr inbounds nuw i8, ptr %6, i64 80
  %10 = getelementptr inbounds nuw i8, ptr %6, i64 104
  tail call void @llvm.memset.p0.i64(ptr noundef nonnull align 8 dereferenceable(24) %9, i8 0, i64 24, i1 false)
  store i32 -1, ptr %10, align 8, !tbaa !27
  %11 = getelementptr inbounds nuw i8, ptr %6, i64 108
  store i32 -1, ptr %11, align 4, !tbaa !28
  %12 = getelementptr inbounds nuw i8, ptr %6, i64 112
  %13 = getelementptr inbounds nuw i8, ptr %6, i64 72
  tail call void @llvm.memset.p0.i64(ptr noundef nonnull align 8 dereferenceable(32) %12, i8 0, i64 32, i1 false)
  store i64 -1, ptr %13, align 8
  %14 = getelementptr inbounds nuw i8, ptr %6, i64 64
  store ptr null, ptr %14, align 8, !tbaa !21
  %15 = tail call noalias ptr @strdup(ptr noundef readonly %2) #17
  %16 = getelementptr inbounds nuw i8, ptr %6, i64 88
  store ptr %15, ptr %16, align 8, !tbaa !30
  %17 = getelementptr inbounds nuw i8, ptr %6, i64 96
  store i32 1, ptr %17, align 8, !tbaa !31
  %18 = tail call { ptr, ptr } @gen_destructure(ptr %0, ptr %1, ptr nonnull %6, ptr nonnull %6, ptr %3, ptr %4)
  ret { ptr, ptr } %18
}